; Function Attrs: nounwind uwtable
define internal i32 @SpoolssReplyOpenPrinter_q(ptr noundef %0, i32 noundef %1, ptr noundef %2, ptr noundef %3, ptr noundef %4, ptr noundef %5) #0 {
  %7 = alloca i32, align 4
  %8 = alloca ptr, align 8
  %9 = getelementptr inbounds nuw i8, ptr %4, i64 72
  %10 = load ptr, ptr %9, align 8
  store ptr null, ptr %8, align 8
  %11 = load i32, ptr @hf_servername, align 4
  %12 = call i32 @dissect_ndr_cvstring(ptr noundef %0, i32 noundef %1, ptr noundef %2, ptr noundef %3, ptr noundef %4, ptr noundef %5, i32 noundef 2, i32 noundef %11, i32 noundef 1, ptr noundef nonnull %8) #5
  %13 = getelementptr inbounds nuw i8, ptr %2, i64 80
  %14 = load ptr, ptr %13, align 8
  %15 = getelementptr inbounds nuw i8, ptr %14, i64 50
  %16 = load i16, ptr %15, align 2
  %17 = and i16 %16, 8
  %.not = icmp eq i16 %17, 0
  br i1 %.not, label %18, label %thread-pre-split

18:                                               ; preds = %6
  %19 = getelementptr inbounds nuw i8, ptr %10, i64 72
  %20 = load ptr, ptr %19, align 8
  %21 = icmp eq ptr %20, null
  %22 = load ptr, ptr %8, align 8
  %23 = icmp ne ptr %22, null
  %or.cond = select i1 %21, i1 %23, i1 false
  br i1 %or.cond, label %24, label %28

24:                                               ; preds = %18
  %25 = call ptr @wmem_file_scope() #5
  %26 = load ptr, ptr %8, align 8
  %27 = call noalias ptr @wmem_strdup(ptr noundef %25, ptr noundef %26) #5
  store ptr %27, ptr %19, align 8
  br label %thread-pre-split

thread-pre-split:                                 ; preds = %6, %24
  %.pr = load ptr, ptr %8, align 8
  br label %28

28:                                               ; preds = %thread-pre-split, %18
  %29 = phi ptr [ %.pr, %thread-pre-split ], [ %22, %18 ]
  %.not36 = icmp eq ptr %29, null
  br i1 %.not36, label %33, label %30

30:                                               ; preds = %28
  %31 = getelementptr inbounds nuw i8, ptr %2, i64 8
  %32 = load ptr, ptr %31, align 8
  call void (ptr, i32, ptr, ...) @col_append_fstr(ptr noundef %32, i32 noundef 25, ptr noundef nonnull @.str.1228, ptr noundef nonnull %29) #5
  br label %33

33:                                               ; preds = %30, %28
  %34 = load i32, ptr @hf_printerlocal, align 4
  %35 = call i32 @dissect_ndr_uint32(ptr noundef %0, i32 noundef %12, ptr noundef nonnull %2, ptr noundef %3, ptr noundef nonnull %4, ptr noundef %5, i32 noundef %34, ptr noundef nonnull %7) #5
  %36 = load i32, ptr @hf_printerdata_type, align 4
  %37 = call i32 @dissect_ndr_uint32(ptr noundef %0, i32 noundef %35, ptr noundef nonnull %2, ptr noundef %3, ptr noundef nonnull %4, ptr noundef %5, i32 noundef %36, ptr noundef null) #5
  %38 = load i32, ptr @hf_replyopenprinter_unk0, align 4
  %39 = call i32 @dissect_ndr_uint32(ptr noundef %0, i32 noundef %37, ptr noundef nonnull %2, ptr noundef %3, ptr noundef nonnull %4, ptr noundef %5, i32 noundef %38, ptr noundef null) #5
  %40 = load i32, ptr @hf_replyopenprinter_unk1, align 4
  %41 = call i32 @dissect_ndr_uint32(ptr noundef %0, i32 noundef %39, ptr noundef nonnull %2, ptr noundef %3, ptr noundef nonnull %4, ptr noundef %5, i32 noundef %40, ptr noundef null) #5
  ret i32 %41
}